target datalayout = "e-m:e-p270:32:32-p271:32:32-p272:64:64-i64:64-i128:128-f80:128-n8:16:32:64-S128"
target triple = "x86_64-pc-linux-gnu"

%struct._object = type { %union.anon, ptr }
%union.anon = type { i64 }
%struct.PyMethodDef = type { ptr, ptr, i32, ptr }
%struct.PyCFunctionObject = type { %struct._object, ptr, ptr, ptr, ptr, ptr }

; Function Attrs: nounwind uwtable
define internal ptr @meth_get__text_signature__(ptr noundef %0, ptr noundef %1) #0 {
  %3 = alloca ptr, align 8
  %4 = alloca ptr, align 8
  %5 = alloca ptr, align 8
  store ptr %0, ptr %3, align 8, !tbaa !9
  store ptr %1, ptr %4, align 8, !tbaa !17
  call void @llvm.lifetime.start.p0(i64 8, ptr %5) #6
  %6 = load ptr, ptr %3, align 8, !tbaa !9
  store ptr %6, ptr %5, align 8, !tbaa !17
  %7 = load ptr, ptr %5, align 8, !tbaa !17
  %8 = getelementptr inbounds nuw %struct.PyCFunctionObject, ptr %7, i32 0, i32 1
  %9 = load ptr, ptr %8, align 8, !tbaa !24
  %10 = getelementptr inbounds nuw %struct.PyMethodDef, ptr %9, i32 0, i32 0
  %11 = load ptr, ptr %10, align 8, !tbaa !18
  %12 = load ptr, ptr %5, align 8, !tbaa !17
  %13 = getelementptr inbounds nuw %struct.PyCFunctionObject, ptr %12, i32 0, i32 1
  %14 = load ptr, ptr %13, align 8, !tbaa !24
  %15 = getelementptr inbounds nuw %struct.PyMethodDef, ptr %14, i32 0, i32 3
  %16 = load ptr, ptr %15, align 8, !tbaa !128
  %17 = load ptr, ptr %5, align 8, !tbaa !17
  %18 = getelementptr inbounds nuw %struct.PyCFunctionObject, ptr %17, i32 0, i32 1
  %19 = load ptr, ptr %18, align 8, !tbaa !24
  %20 = getelementptr inbounds nuw %struct.PyMethodDef, ptr %19, i32 0, i32 2
  %21 = load i32, ptr %20, align 8, !tbaa !13
  %22 = call ptr @_PyType_GetTextSignatureFromInternalDoc(ptr noundef %11, ptr noundef %16, i32 noundef %21)
  call void @llvm.lifetime.end.p0(i64 8, ptr %5) #6
  ret ptr %22
}