; Function Attrs: nounwind uwtable
define internal ptr @meth_get__text_signature__(ptr noundef readonly captures(none) %0, ptr readnone captures(none) %1) #0 {
  %3 = getelementptr inbounds nuw i8, ptr %0, i64 16
  %4 = load ptr, ptr %3, align 8, !tbaa !22
  %5 = load ptr, ptr %4, align 8, !tbaa !13
  %6 = getelementptr inbounds nuw i8, ptr %4, i64 24
  %7 = load ptr, ptr %6, align 8, !tbaa !125
  %8 = getelementptr inbounds nuw i8, ptr %4, i64 16
  %9 = load i32, ptr %8, align 8, !tbaa !4
  %10 = tail call ptr @_PyType_GetTextSignatureFromInternalDoc(ptr noundef %5, ptr noundef %7, i32 noundef %9) #5
  ret ptr %10
}